target datalayout = "e-m:e-p270:32:32-p271:32:32-p272:64:64-i64:64-i128:128-f80:128-n8:16:32:64-S128"
target triple = "x86_64-pc-linux-gnu"

%struct.lv_gridnav_dsc_t = type { i32, ptr }

; Function Attrs: nounwind uwtable
define internal zeroext i1 @obj_is_focusable(ptr noundef %0) #0 {
  %2 = alloca i1, align 1
  %3 = alloca ptr, align 8
  store ptr %0, ptr %3, align 8, !tbaa !3
  %4 = load ptr, ptr %3, align 8, !tbaa !3
  %5 = call zeroext i1 @lv_obj_has_flag(ptr noundef %4, i32 noundef 1)
  br i1 %5, label %6, label %7

6:                                                ; preds = %1
  store i1 false, ptr %2, align 1
  br label %12

7:                                                ; preds = %1
  %8 = load ptr, ptr %3, align 8, !tbaa !3
  %9 = call zeroext i1 @lv_obj_has_flag(ptr noundef %8, i32 noundef 6)
  br i1 %9, label %10, label %11

10:                                               ; preds = %7
  store i1 true, ptr %2, align 1
  br label %12

11:                                               ; preds = %7
  store i1 false, ptr %2, align 1
  br label %12

12:                                               ; preds = %11, %10, %6
  %13 = load i1, ptr %2, align 1
  ret i1 %13
}

; Function Attrs: nounwind uwtable
define void @lv_gridnav_set_focused(ptr noundef %0, ptr noundef %1, i32 noundef %2) #0 {
  %4 = alloca ptr, align 8
  %5 = alloca ptr, align 8
  %6 = alloca i32, align 4
  %7 = alloca i32, align 4
  %8 = alloca i32, align 4
  %9 = alloca ptr, align 8
  %10 = alloca ptr, align 8
  %11 = alloca i32, align 4
  store ptr %0, ptr %4, align 8, !tbaa !3
  store ptr %1, ptr %5, align 8, !tbaa !3
  store i32 %2, ptr %6, align 4, !tbaa !7
  br label %12

12:                                               ; preds = %3
  %13 = load ptr, ptr %5, align 8, !tbaa !3
  %14 = icmp ne ptr %13, null
  br i1 %14, label %19, label %15

15:                                               ; preds = %12
  br label %16

16:                                               ; preds = %15
  br label %17

17:                                               ; preds = %16
  br label %18

18:                                               ; preds = %17, %18
  br label %18

19:                                               ; preds = %12
  br label %20

20:                                               ; preds = %19
  call void @llvm.lifetime.start.p0(i64 4, ptr %7) #3
  call void @llvm.lifetime.start.p0(i64 4, ptr %8) #3
  %21 = load ptr, ptr %4, align 8, !tbaa !3
  %22 = call i32 @lv_obj_get_event_count(ptr noundef %21)
  store i32 %22, ptr %8, align 4, !tbaa !7
  call void @llvm.lifetime.start.p0(i64 8, ptr %9) #3
  store ptr null, ptr %9, align 8, !tbaa !3
  store i32 0, ptr %7, align 4, !tbaa !7
  br label %23

23:                                               ; preds = %41, %20
  %24 = load i32, ptr %7, align 4, !tbaa !7
  %25 = load i32, ptr %8, align 4, !tbaa !7
  %26 = icmp ult i32 %24, %25
  br i1 %26, label %27, label %44

27:                                               ; preds = %23
  call void @llvm.lifetime.start.p0(i64 8, ptr %10) #3
  %28 = load ptr, ptr %4, align 8, !tbaa !3
  %29 = load i32, ptr %7, align 4, !tbaa !7
  %30 = call ptr @lv_obj_get_event_dsc(ptr noundef %28, i32 noundef %29)
  store ptr %30, ptr %10, align 8, !tbaa !3
  %31 = load ptr, ptr %10, align 8, !tbaa !3
  %32 = call ptr @lv_event_dsc_get_cb(ptr noundef %31)
  %33 = icmp eq ptr %32, @gridnav_event_cb
  br i1 %33, label %34, label %37

34:                                               ; preds = %27
  %35 = load ptr, ptr %10, align 8, !tbaa !3
  %36 = call ptr @lv_event_dsc_get_user_data(ptr noundef %35)
  store ptr %36, ptr %9, align 8, !tbaa !3
  store i32 8, ptr %11, align 4
  br label %38

37:                                               ; preds = %27
  store i32 0, ptr %11, align 4
  br label %38

38:                                               ; preds = %37, %34
  call void @llvm.lifetime.end.p0(i64 8, ptr %10) #3
  %39 = load i32, ptr %11, align 4
  switch i32 %39, label %79 [
    i32 0, label %40
    i32 8, label %44
  ]

40:                                               ; preds = %38
  br label %41

41:                                               ; preds = %40
  %42 = load i32, ptr %7, align 4, !tbaa !7
  %43 = add i32 %42, 1
  store i32 %43, ptr %7, align 4, !tbaa !7
  br label %23, !llvm.loop !14

44:                                               ; preds = %38, %23
  %45 = load ptr, ptr %9, align 8, !tbaa !3
  %46 = icmp eq ptr %45, null
  br i1 %46, label %47, label %51

47:                                               ; preds = %44
  br label %48

48:                                               ; preds = %47
  br label %49

49:                                               ; preds = %48
  br label %50

50:                                               ; preds = %49
  store i32 1, ptr %11, align 4
  br label %76

51:                                               ; preds = %44
  %52 = load ptr, ptr %5, align 8, !tbaa !3
  %53 = call zeroext i1 @obj_is_focusable(ptr noundef %52)
  %54 = zext i1 %53 to i32
  %55 = icmp eq i32 %54, 0
  br i1 %55, label %56, label %60

56:                                               ; preds = %51
  br label %57

57:                                               ; preds = %56
  br label %58

58:                                               ; preds = %57
  br label %59

59:                                               ; preds = %58
  store i32 1, ptr %11, align 4
  br label %76

60:                                               ; preds = %51
  %61 = load ptr, ptr %9, align 8, !tbaa !3
  %62 = getelementptr inbounds nuw %struct.lv_gridnav_dsc_t, ptr %61, i32 0, i32 1
  %63 = load ptr, ptr %62, align 8, !tbaa !11
  %64 = icmp ne ptr %63, null
  br i1 %64, label %65, label %69

65:                                               ; preds = %60
  %66 = load ptr, ptr %9, align 8, !tbaa !3
  %67 = getelementptr inbounds nuw %struct.lv_gridnav_dsc_t, ptr %66, i32 0, i32 1
  %68 = load ptr, ptr %67, align 8, !tbaa !11
  call void @lv_obj_remove_state(ptr noundef %68, i16 noundef zeroext 6)
  br label %69

69:                                               ; preds = %65, %60
  %70 = load ptr, ptr %5, align 8, !tbaa !3
  call void @lv_obj_add_state(ptr noundef %70, i16 noundef zeroext 6)
  %71 = load ptr, ptr %5, align 8, !tbaa !3
  %72 = load i32, ptr %6, align 4, !tbaa !7
  call void @lv_obj_scroll_to_view(ptr noundef %71, i32 noundef %72)
  %73 = load ptr, ptr %5, align 8, !tbaa !3
  %74 = load ptr, ptr %9, align 8, !tbaa !3
  %75 = getelementptr inbounds nuw %struct.lv_gridnav_dsc_t, ptr %74, i32 0, i32 1
  store ptr %73, ptr %75, align 8, !tbaa !11
  store i32 0, ptr %11, align 4
  br label %76

76:                                               ; preds = %69, %59, %50
  call void @llvm.lifetime.end.p0(i64 8, ptr %9) #3
  call void @llvm.lifetime.end.p0(i64 4, ptr %8) #3
  call void @llvm.lifetime.end.p0(i64 4, ptr %7) #3
  %77 = load i32, ptr %11, align 4
  switch i32 %77, label %79 [
    i32 0, label %78
    i32 1, label %78
  ]

78:                                               ; preds = %76, %76
  ret void

79:                                               ; preds = %76, %38
  unreachable
}