; Function Attrs: nounwind uwtable
define void @lv_gridnav_set_focused(ptr noundef %0, ptr noundef %1, i32 noundef %2) local_unnamed_addr #0 {
  %.not = icmp eq ptr %1, null
  br i1 %.not, label %.preheader, label %4

.preheader:                                       ; preds = %3, %.preheader
  br label %.preheader

4:                                                ; preds = %3
  %5 = tail call i32 @lv_obj_get_event_count(ptr noundef %0) #4
  %.not31 = icmp eq i32 %5, 0
  br i1 %.not31, label %.thread27, label %.lr.ph

6:                                                ; preds = %.lr.ph
  %7 = add nuw i32 %.01830, 1
  %exitcond.not = icmp eq i32 %7, %5
  br i1 %exitcond.not, label %.thread27, label %.lr.ph, !llvm.loop !14

.lr.ph:                                           ; preds = %4, %6
  %.01830 = phi i32 [ %7, %6 ], [ 0, %4 ]
  %8 = tail call ptr @lv_obj_get_event_dsc(ptr noundef %0, i32 noundef %.01830) #4
  %9 = tail call ptr @lv_event_dsc_get_cb(ptr noundef %8) #4
  %10 = icmp eq ptr %9, @gridnav_event_cb
  br i1 %10, label %11, label %6

11:                                               ; preds = %.lr.ph
  %12 = tail call ptr @lv_event_dsc_get_user_data(ptr noundef %8) #4
  %13 = icmp eq ptr %12, null
  br i1 %13, label %.thread27, label %14

14:                                               ; preds = %11
  %15 = tail call zeroext i1 @lv_obj_has_flag(ptr noundef nonnull %1, i32 noundef 1) #4
  br i1 %15, label %.thread27, label %obj_is_focusable.exit

obj_is_focusable.exit:                            ; preds = %14
  %16 = tail call zeroext i1 @lv_obj_has_flag(ptr noundef nonnull %1, i32 noundef 6) #4
  br i1 %16, label %17, label %.thread27

17:                                               ; preds = %obj_is_focusable.exit
  %18 = getelementptr inbounds nuw i8, ptr %12, i64 8
  %19 = load ptr, ptr %18, align 8, !tbaa !11
  %.not22 = icmp eq ptr %19, null
  br i1 %.not22, label %21, label %20

20:                                               ; preds = %17
  tail call void @lv_obj_remove_state(ptr noundef nonnull %19, i16 noundef zeroext 6) #4
  br label %21

21:                                               ; preds = %20, %17
  tail call void @lv_obj_add_state(ptr noundef nonnull %1, i16 noundef zeroext 6) #4
  tail call void @lv_obj_scroll_to_view(ptr noundef nonnull %1, i32 noundef %2) #4
  store ptr %1, ptr %18, align 8, !tbaa !11
  br label %.thread27

.thread27:                                        ; preds = %6, %4, %14, %obj_is_focusable.exit, %11, %21
  ret void
}